target datalayout = "e-m:e-p270:32:32-p271:32:32-p272:64:64-i64:64-i128:128-f80:128-n8:16:32:64-S128"
target triple = "x86_64-pc-linux-gnu"

%struct.QArrayData = type { %"class.QtPrivate::RefCount", i32, i32, i64 }
%"class.QtPrivate::RefCount" = type { %class.QBasicAtomicInteger }
%class.QBasicAtomicInteger = type { %"struct.std::atomic" }
%"struct.std::atomic" = type { %"struct.std::__atomic_base" }
%"struct.std::__atomic_base" = type { i32 }
%class.QString = type { ptr }

@.str.10 = private unnamed_addr constant [21 x i8] c"set_color_per_vertex\00", align 1
@.str.11 = private unnamed_addr constant [36 x i8] c"apply_color_thresholding_per_vertex\00", align 1
@.str.12 = private unnamed_addr constant [49 x i8] c"apply_color_brightness_contrast_gamma_per_vertex\00", align 1
@.str.13 = private unnamed_addr constant [31 x i8] c"apply_color_inverse_per_vertex\00", align 1
@.str.14 = private unnamed_addr constant [40 x i8] c"apply_color_level_adjustment_per_vertex\00", align 1
@.str.15 = private unnamed_addr constant [47 x i8] c"apply_color_intensity_colourisation_per_vertex\00", align 1
@.str.16 = private unnamed_addr constant [36 x i8] c"apply_color_desaturation_per_vertex\00", align 1
@.str.17 = private unnamed_addr constant [36 x i8] c"apply_color_equalization_per_vertex\00", align 1
@.str.18 = private unnamed_addr constant [37 x i8] c"apply_color_white_balance_per_vertex\00", align 1
@.str.19 = private unnamed_addr constant [38 x i8] c"compute_color_perlin_noise_per_vertex\00", align 1
@.str.20 = private unnamed_addr constant [31 x i8] c"apply_color_noising_per_vertex\00", align 1
@.str.21 = private unnamed_addr constant [34 x i8] c"compute_color_scattering_per_mesh\00", align 1
@.str.22 = private unnamed_addr constant [33 x i8] c"apply_scalar_clamping_per_vertex\00", align 1
@.str.23 = private unnamed_addr constant [35 x i8] c"apply_scalar_saturation_per_vertex\00", align 1
@.str.24 = private unnamed_addr constant [37 x i8] c"compute_color_from_scalar_per_vertex\00", align 1
@.str.25 = private unnamed_addr constant [35 x i8] c"compute_color_from_scalar_per_face\00", align 1
@.str.26 = private unnamed_addr constant [48 x i8] c"compute_scalar_by_discrete_curvature_per_vertex\00", align 1
@.str.27 = private unnamed_addr constant [40 x i8] c"compute_scalar_by_aspect_ratio_per_face\00", align 1
@.str.28 = private unnamed_addr constant [43 x i8] c"apply_color_laplacian_smoothing_per_vertex\00", align 1
@.str.29 = private unnamed_addr constant [41 x i8] c"apply_color_laplacian_smoothing_per_face\00", align 1
@.str.30 = private unnamed_addr constant [38 x i8] c"compute_color_transfer_vertex_to_face\00", align 1
@.str.31 = private unnamed_addr constant [36 x i8] c"compute_color_transfer_mesh_to_face\00", align 1
@.str.32 = private unnamed_addr constant [38 x i8] c"compute_color_transfer_face_to_vertex\00", align 1
@.str.33 = private unnamed_addr constant [38 x i8] c"compute_color_from_texture_per_vertex\00", align 1
@.str.34 = private unnamed_addr constant [30 x i8] c"compute_color_random_per_face\00", align 1
@.str.35 = private unnamed_addr constant [47 x i8] c"compute_color_by_conntected_component_per_face\00", align 1
@.str.36 = private unnamed_addr constant [39 x i8] c"compute_scalar_transfer_vertex_to_face\00", align 1
@.str.37 = private unnamed_addr constant [39 x i8] c"compute_scalar_transfer_face_to_vertex\00", align 1
@_ZN10QArrayData11shared_nullE = external global [2 x %struct.QArrayData], align 16

; Function Attrs: mustprogress nounwind uwtable
define linkonce_odr noundef ptr @_ZN10QArrayData10sharedNullEv() #2 comdat align 2 {
  ret ptr @_ZN10QArrayData11shared_nullE
}

; Function Attrs: mustprogress nounwind uwtable
define linkonce_odr noundef ptr @_ZN15QTypedArrayDataItE10sharedNullEv() #2 comdat align 2 {
  %1 = call noundef ptr @_ZN10QArrayData10sharedNullEv() #4
  ret ptr %1
}

; Function Attrs: mustprogress nounwind uwtable
define linkonce_odr void @_ZN7QStringC2Ev(ptr noundef nonnull align 8 dereferenceable(8) %0) unnamed_addr #2 comdat align 2 {
  %2 = alloca ptr, align 8
  store ptr %0, ptr %2, align 8
  %3 = load ptr, ptr %2, align 8
  %4 = getelementptr inbounds %class.QString, ptr %3, i32 0, i32 0
  %5 = call noundef ptr @_ZN15QTypedArrayDataItE10sharedNullEv() #4
  store ptr %5, ptr %4, align 8
  ret void
}

; Function Attrs: mustprogress uwtable
define linkonce_odr void @_ZN7QStringC2EPKc(ptr noundef nonnull align 8 dereferenceable(8) %0, ptr noundef %1) unnamed_addr #3 comdat align 2 {
  %3 = alloca ptr, align 8
  %4 = alloca ptr, align 8
  store ptr %0, ptr %3, align 8
  store ptr %1, ptr %4, align 8
  %5 = load ptr, ptr %3, align 8
  %6 = getelementptr inbounds %class.QString, ptr %5, i32 0, i32 0
  %7 = load ptr, ptr %4, align 8
  %8 = load ptr, ptr %4, align 8
  %9 = icmp ne ptr %8, null
  br i1 %9, label %10, label %14

10:                                               ; preds = %2
  %11 = load ptr, ptr %4, align 8
  %12 = call i64 @strlen(ptr noundef %11) #26
  %13 = trunc i64 %12 to i32
  br label %15

14:                                               ; preds = %2
  br label %15

15:                                               ; preds = %14, %10
  %16 = phi i32 [ %13, %10 ], [ -1, %14 ]
  %17 = call noundef ptr @_ZN7QString16fromAscii_helperEPKci(ptr noundef %7, i32 noundef %16)
  store ptr %17, ptr %6, align 8
  ret void
}

; Function Attrs: mustprogress uwtable
define void @_ZNK15FilterColorProc16pythonFilterNameEi(ptr dead_on_unwind noalias writable sret(%class.QString) align 8 %0, ptr noundef nonnull align 8 dereferenceable(80) %1, i32 noundef %2) unnamed_addr #3 align 2 {
  %4 = alloca ptr, align 8
  %5 = alloca ptr, align 8
  %6 = alloca i32, align 4
  store ptr %0, ptr %4, align 8
  store ptr %1, ptr %5, align 8
  store i32 %2, ptr %6, align 4
  %7 = load i32, ptr %6, align 4
  switch i32 %7, label %36 [
    i32 0, label %8
    i32 1, label %9
    i32 2, label %10
    i32 5, label %11
    i32 4, label %12
    i32 6, label %13
    i32 7, label %14
    i32 9, label %15
    i32 8, label %16
    i32 10, label %17
    i32 11, label %18
    i32 12, label %19
    i32 13, label %20
    i32 14, label %21
    i32 15, label %22
    i32 16, label %23
    i32 17, label %24
    i32 18, label %25
    i32 19, label %26
    i32 20, label %27
    i32 23, label %28
    i32 24, label %29
    i32 21, label %30
    i32 22, label %31
    i32 25, label %32
    i32 26, label %33
    i32 27, label %34
    i32 28, label %35
  ]

8:                                                ; preds = %3
  call void @_ZN7QStringC2EPKc(ptr noundef nonnull align 8 dereferenceable(8) %0, ptr noundef @.str.10)
  br label %38

9:                                                ; preds = %3
  call void @_ZN7QStringC2EPKc(ptr noundef nonnull align 8 dereferenceable(8) %0, ptr noundef @.str.11)
  br label %38

10:                                               ; preds = %3
  call void @_ZN7QStringC2EPKc(ptr noundef nonnull align 8 dereferenceable(8) %0, ptr noundef @.str.12)
  br label %38

11:                                               ; preds = %3
  call void @_ZN7QStringC2EPKc(ptr noundef nonnull align 8 dereferenceable(8) %0, ptr noundef @.str.13)
  br label %38

12:                                               ; preds = %3
  call void @_ZN7QStringC2EPKc(ptr noundef nonnull align 8 dereferenceable(8) %0, ptr noundef @.str.14)
  br label %38

13:                                               ; preds = %3
  call void @_ZN7QStringC2EPKc(ptr noundef nonnull align 8 dereferenceable(8) %0, ptr noundef @.str.15)
  br label %38

14:                                               ; preds = %3
  call void @_ZN7QStringC2EPKc(ptr noundef nonnull align 8 dereferenceable(8) %0, ptr noundef @.str.16)
  br label %38

15:                                               ; preds = %3
  call void @_ZN7QStringC2EPKc(ptr noundef nonnull align 8 dereferenceable(8) %0, ptr noundef @.str.17)
  br label %38

16:                                               ; preds = %3
  call void @_ZN7QStringC2EPKc(ptr noundef nonnull align 8 dereferenceable(8) %0, ptr noundef @.str.18)
  br label %38

17:                                               ; preds = %3
  call void @_ZN7QStringC2EPKc(ptr noundef nonnull align 8 dereferenceable(8) %0, ptr noundef @.str.19)
  br label %38

18:                                               ; preds = %3
  call void @_ZN7QStringC2EPKc(ptr noundef nonnull align 8 dereferenceable(8) %0, ptr noundef @.str.20)
  br label %38

19:                                               ; preds = %3
  call void @_ZN7QStringC2EPKc(ptr noundef nonnull align 8 dereferenceable(8) %0, ptr noundef @.str.21)
  br label %38

20:                                               ; preds = %3
  call void @_ZN7QStringC2EPKc(ptr noundef nonnull align 8 dereferenceable(8) %0, ptr noundef @.str.22)
  br label %38

21:                                               ; preds = %3
  call void @_ZN7QStringC2EPKc(ptr noundef nonnull align 8 dereferenceable(8) %0, ptr noundef @.str.23)
  br label %38

22:                                               ; preds = %3
  call void @_ZN7QStringC2EPKc(ptr noundef nonnull align 8 dereferenceable(8) %0, ptr noundef @.str.24)
  br label %38

23:                                               ; preds = %3
  call void @_ZN7QStringC2EPKc(ptr noundef nonnull align 8 dereferenceable(8) %0, ptr noundef @.str.25)
  br label %38

24:                                               ; preds = %3
  call void @_ZN7QStringC2EPKc(ptr noundef nonnull align 8 dereferenceable(8) %0, ptr noundef @.str.26)
  br label %38

25:                                               ; preds = %3
  call void @_ZN7QStringC2EPKc(ptr noundef nonnull align 8 dereferenceable(8) %0, ptr noundef @.str.27)
  br label %38

26:                                               ; preds = %3
  call void @_ZN7QStringC2EPKc(ptr noundef nonnull align 8 dereferenceable(8) %0, ptr noundef @.str.28)
  br label %38

27:                                               ; preds = %3
  call void @_ZN7QStringC2EPKc(ptr noundef nonnull align 8 dereferenceable(8) %0, ptr noundef @.str.29)
  br label %38

28:                                               ; preds = %3
  call void @_ZN7QStringC2EPKc(ptr noundef nonnull align 8 dereferenceable(8) %0, ptr noundef @.str.30)
  br label %38

29:                                               ; preds = %3
  call void @_ZN7QStringC2EPKc(ptr noundef nonnull align 8 dereferenceable(8) %0, ptr noundef @.str.31)
  br label %38

30:                                               ; preds = %3
  call void @_ZN7QStringC2EPKc(ptr noundef nonnull align 8 dereferenceable(8) %0, ptr noundef @.str.32)
  br label %38

31:                                               ; preds = %3
  call void @_ZN7QStringC2EPKc(ptr noundef nonnull align 8 dereferenceable(8) %0, ptr noundef @.str.33)
  br label %38

32:                                               ; preds = %3
  call void @_ZN7QStringC2EPKc(ptr noundef nonnull align 8 dereferenceable(8) %0, ptr noundef @.str.34)
  br label %38

33:                                               ; preds = %3
  call void @_ZN7QStringC2EPKc(ptr noundef nonnull align 8 dereferenceable(8) %0, ptr noundef @.str.35)
  br label %38

34:                                               ; preds = %3
  call void @_ZN7QStringC2EPKc(ptr noundef nonnull align 8 dereferenceable(8) %0, ptr noundef @.str.36)
  br label %38

35:                                               ; preds = %3
  call void @_ZN7QStringC2EPKc(ptr noundef nonnull align 8 dereferenceable(8) %0, ptr noundef @.str.37)
  br label %38

36:                                               ; preds = %3
  br label %37

37:                                               ; preds = %36
  call void @_ZN7QStringC2Ev(ptr noundef nonnull align 8 dereferenceable(8) %0) #4
  br label %38

38:                                               ; preds = %37, %35, %34, %33, %32, %31, %30, %29, %28, %27, %26, %25, %24, %23, %22, %21, %20, %19, %18, %17, %16, %15, %14, %13, %12, %11, %10, %9, %8
  ret void
}